; Function Attrs: mustprogress uwtable
define hidden void @_ZN6Assimp15Q3BSPFileParser10getIndicesEv(ptr noundef nonnull readonly align 8 captures(none) dereferenceable(48) %0) local_unnamed_addr #0 align 2 personality ptr @__gxx_personality_v0 {
  %2 = getelementptr inbounds nuw i8, ptr %0, i64 32
  %3 = load ptr, ptr %2, align 8
  %4 = getelementptr inbounds nuw i8, ptr %3, i64 24
  %5 = load ptr, ptr %4, align 8
  %6 = getelementptr inbounds nuw i8, ptr %5, i64 88
  %7 = load ptr, ptr %6, align 8
  %8 = load i32, ptr %7, align 4
  %9 = getelementptr inbounds nuw i8, ptr %7, i64 4
  %10 = load i32, ptr %9, align 4
  %11 = sext i32 %10 to i64
  %12 = lshr i64 %11, 2
  %13 = getelementptr inbounds nuw i8, ptr %3, i64 96
  %14 = getelementptr inbounds nuw i8, ptr %3, i64 104
  %15 = load ptr, ptr %14, align 8
  %16 = load ptr, ptr %13, align 8
  %17 = ptrtoint ptr %15 to i64
  %18 = ptrtoint ptr %16 to i64
  %19 = sub i64 %17, %18
  %20 = ashr exact i64 %19, 2
  %21 = icmp ugt i64 %12, %20
  br i1 %21, label %22, label %24

22:                                               ; preds = %1
  %23 = sub nuw nsw i64 %12, %20
  tail call void @_ZNSt6vectorIiSaIiEE17_M_default_appendEm(ptr noundef nonnull align 8 dereferenceable(24) %13, i64 noundef %23)
  br label %_ZNSt6vectorIiSaIiEE6resizeEm.exit

24:                                               ; preds = %1
  %25 = icmp ult i64 %12, %20
  br i1 %25, label %26, label %_ZNSt6vectorIiSaIiEE6resizeEm.exit

26:                                               ; preds = %24
  %27 = getelementptr inbounds nuw i32, ptr %16, i64 %12
  %.not.i.i = icmp eq ptr %15, %27
  br i1 %.not.i.i, label %_ZNSt6vectorIiSaIiEE6resizeEm.exit, label %28

28:                                               ; preds = %26
  store ptr %27, ptr %14, align 8
  br label %_ZNSt6vectorIiSaIiEE6resizeEm.exit

_ZNSt6vectorIiSaIiEE6resizeEm.exit:               ; preds = %22, %24, %26, %28
  %29 = sext i32 %8 to i64
  %30 = load ptr, ptr %2, align 8
  %31 = getelementptr inbounds nuw i8, ptr %30, i64 96
  %32 = load ptr, ptr %31, align 8
  %33 = getelementptr inbounds nuw i8, ptr %0, i64 8
  %34 = load ptr, ptr %33, align 8
  %35 = getelementptr inbounds nuw i8, ptr %34, i64 %29
  %36 = load i32, ptr %9, align 4
  %37 = sext i32 %36 to i64
  tail call void @llvm.memcpy.p0.p0.i64(ptr nonnull align 4 %32, ptr nonnull align 1 %35, i64 %37, i1 false)
  ret void
}